target datalayout = "e-m:e-p270:32:32-p271:32:32-p272:64:64-i64:64-i128:128-f80:128-n8:16:32:64-S128"
target triple = "x86_64-pc-linux-gnu"

@.str.2 = private unnamed_addr constant [31 x i8] c"SDL_AUDIO_DEVICE_SAMPLE_FRAMES\00", align 1

; Function Attrs: nounwind uwtable
define hidden i32 @SDL_GetDefaultSampleFramesFromFreq(i32 noundef %0) #0 {
  %2 = alloca i32, align 4
  %3 = alloca i32, align 4
  %4 = alloca ptr, align 8
  %5 = alloca i32, align 4
  %6 = alloca i32, align 4
  store i32 %0, ptr %3, align 4
  call void @llvm.lifetime.start.p0(i64 8, ptr %4) #6
  %7 = call ptr @SDL_GetHint_REAL(ptr noundef @.str.2)
  store ptr %7, ptr %4, align 8
  %8 = load ptr, ptr %4, align 8
  %9 = icmp ne ptr %8, null
  br i1 %9, label %10, label %21

10:                                               ; preds = %1
  call void @llvm.lifetime.start.p0(i64 4, ptr %5) #6
  %11 = load ptr, ptr %4, align 8
  %12 = call i32 @SDL_atoi_REAL(ptr noundef %11)
  store i32 %12, ptr %5, align 4
  %13 = load i32, ptr %5, align 4
  %14 = icmp sgt i32 %13, 0
  br i1 %14, label %15, label %17

15:                                               ; preds = %10
  %16 = load i32, ptr %5, align 4
  store i32 %16, ptr %2, align 4
  store i32 1, ptr %6, align 4
  br label %18

17:                                               ; preds = %10
  store i32 0, ptr %6, align 4
  br label %18

18:                                               ; preds = %17, %15
  call void @llvm.lifetime.end.p0(i64 4, ptr %5) #6
  %19 = load i32, ptr %6, align 4
  switch i32 %19, label %34 [
    i32 0, label %20
  ]

20:                                               ; preds = %18
  br label %21

21:                                               ; preds = %20, %1
  %22 = load i32, ptr %3, align 4
  %23 = icmp sle i32 %22, 22050
  br i1 %23, label %24, label %25

24:                                               ; preds = %21
  store i32 512, ptr %2, align 4
  store i32 1, ptr %6, align 4
  br label %34

25:                                               ; preds = %21
  %26 = load i32, ptr %3, align 4
  %27 = icmp sle i32 %26, 48000
  br i1 %27, label %28, label %29

28:                                               ; preds = %25
  store i32 1024, ptr %2, align 4
  store i32 1, ptr %6, align 4
  br label %34

29:                                               ; preds = %25
  %30 = load i32, ptr %3, align 4
  %31 = icmp sle i32 %30, 96000
  br i1 %31, label %32, label %33

32:                                               ; preds = %29
  store i32 2048, ptr %2, align 4
  store i32 1, ptr %6, align 4
  br label %34

33:                                               ; preds = %29
  store i32 4096, ptr %2, align 4
  store i32 1, ptr %6, align 4
  br label %34

34:                                               ; preds = %33, %32, %28, %24, %18
  call void @llvm.lifetime.end.p0(i64 8, ptr %4) #6
  %35 = load i32, ptr %2, align 4
  ret i32 %35
}