; Function Attrs: nounwind uwtable
define hidden range(i32 1, -2147483648) i32 @SDL_GetDefaultSampleFramesFromFreq(i32 noundef %0) local_unnamed_addr #0 {
  %2 = tail call ptr @SDL_GetHint_REAL(ptr noundef nonnull @.str.2) #14
  %.not = icmp eq ptr %2, null
  br i1 %.not, label %6, label %3

3:                                                ; preds = %1
  %4 = tail call i32 @SDL_atoi_REAL(ptr noundef nonnull %2) #14
  %5 = icmp slt i32 %4, 1
  br i1 %5, label %6, label %12

6:                                                ; preds = %3, %1
  %7 = icmp slt i32 %0, 22051
  br i1 %7, label %12, label %8

8:                                                ; preds = %6
  %9 = icmp samesign ult i32 %0, 48001
  br i1 %9, label %12, label %10

10:                                               ; preds = %8
  %11 = icmp samesign ult i32 %0, 96001
  %. = select i1 %11, i32 2048, i32 4096
  br label %12

12:                                               ; preds = %10, %8, %6, %3
  %.1 = phi i32 [ %4, %3 ], [ 512, %6 ], [ 1024, %8 ], [ %., %10 ]
  ret i32 %.1
}